; Function Attrs: mustprogress nounwind uwtable
define dso_local void @_ZN4node6worker7Message15AddTransferableEOSt10unique_ptrINS0_12TransferDataESt14default_deleteIS3_EE(ptr noundef nonnull align 8 dereferenceable(136) %this, ptr noundef nonnull align 8 dereferenceable(8) %data) local_unnamed_addr #6 align 2 {
entry:
  %_M_finish.i = getelementptr inbounds i8, ptr %this, i64 80
  %0 = load ptr, ptr %_M_finish.i, align 8
  %_M_end_of_storage.i = getelementptr inbounds i8, ptr %this, i64 88
  %1 = load ptr, ptr %_M_end_of_storage.i, align 8
  %cmp.not.i = icmp eq ptr %0, %1
  br i1 %cmp.not.i, label %if.else.i, label %if.then.i

if.then.i:                                        ; preds = %entry
  %2 = load i64, ptr %data, align 8
  store i64 %2, ptr %0, align 8
  store ptr null, ptr %data, align 8
  %3 = load ptr, ptr %_M_finish.i, align 8
  %incdec.ptr.i = getelementptr inbounds i8, ptr %3, i64 8
  store ptr %incdec.ptr.i, ptr %_M_finish.i, align 8
  br label %_ZNSt6vectorISt10unique_ptrIN4node6worker12TransferDataESt14default_deleteIS3_EESaIS6_EE12emplace_backIJS6_EEERS6_DpOT_.exit

if.else.i:                                        ; preds = %entry
  %transferables_ = getelementptr inbounds i8, ptr %this, i64 72
  tail call void @_ZNSt6vectorISt10unique_ptrIN4node6worker12TransferDataESt14default_deleteIS3_EESaIS6_EE17_M_realloc_insertIJS6_EEEvN9__gnu_cxx17__normal_iteratorIPS6_S8_EEDpOT_(ptr noundef nonnull align 8 dereferenceable(24) %transferables_, ptr %0, ptr noundef nonnull align 8 dereferenceable(8) %data)
  br label %_ZNSt6vectorISt10unique_ptrIN4node6worker12TransferDataESt14default_deleteIS3_EESaIS6_EE12emplace_backIJS6_EEERS6_DpOT_.exit

_ZNSt6vectorISt10unique_ptrIN4node6worker12TransferDataESt14default_deleteIS3_EESaIS6_EE12emplace_backIJS6_EEERS6_DpOT_.exit: ; preds = %if.then.i, %if.else.i
  ret void
}